target datalayout = "e-m:e-p270:32:32-p271:32:32-p272:64:64-i64:64-i128:128-f80:128-n8:16:32:64-S128"
target triple = "x86_64-pc-linux-gnu"

%struct.__va_list_tag = type { i32, i32, ptr, ptr }

@zend_ce_stringable = external global ptr, align 8

; Function Attrs: nounwind uwtable
define dso_local void @zend_class_implements(ptr noundef %0, i32 noundef %1, ...) #0 {
  %3 = alloca ptr, align 8
  %4 = alloca i32, align 4
  %5 = alloca ptr, align 8
  %6 = alloca [1 x %struct.__va_list_tag], align 16
  store ptr %0, ptr %3, align 8, !tbaa !66
  store i32 %1, ptr %4, align 4, !tbaa !4
  call void @llvm.lifetime.start.p0(i64 8, ptr %5) #21
  call void @llvm.lifetime.start.p0(i64 24, ptr %6) #21
  %7 = getelementptr inbounds [1 x %struct.__va_list_tag], ptr %6, i64 0, i64 0
  call void @llvm.va_start.p0(ptr %7)
  br label %8

8:                                                ; preds = %37, %36, %2
  %9 = load i32, ptr %4, align 4, !tbaa !4
  %10 = add nsw i32 %9, -1
  store i32 %10, ptr %4, align 4, !tbaa !4
  %11 = icmp ne i32 %9, 0
  br i1 %11, label %12, label %40

12:                                               ; preds = %8
  %13 = getelementptr inbounds [1 x %struct.__va_list_tag], ptr %6, i64 0, i64 0
  %14 = getelementptr inbounds nuw %struct.__va_list_tag, ptr %13, i32 0, i32 0
  %15 = load i32, ptr %14, align 16
  %16 = icmp ule i32 %15, 40
  br i1 %16, label %17, label %22

17:                                               ; preds = %12
  %18 = getelementptr inbounds nuw %struct.__va_list_tag, ptr %13, i32 0, i32 3
  %19 = load ptr, ptr %18, align 16
  %20 = getelementptr i8, ptr %19, i32 %15
  %21 = add i32 %15, 8
  store i32 %21, ptr %14, align 16
  br label %26

22:                                               ; preds = %12
  %23 = getelementptr inbounds nuw %struct.__va_list_tag, ptr %13, i32 0, i32 2
  %24 = load ptr, ptr %23, align 8
  %25 = getelementptr i8, ptr %24, i32 8
  store ptr %25, ptr %23, align 8
  br label %26

26:                                               ; preds = %22, %17
  %27 = phi ptr [ %20, %17 ], [ %24, %22 ]
  %28 = load ptr, ptr %27, align 8, !tbaa !66
  store ptr %28, ptr %5, align 8, !tbaa !66
  %29 = load ptr, ptr %5, align 8, !tbaa !66
  %30 = load ptr, ptr @zend_ce_stringable, align 8, !tbaa !66
  %31 = icmp eq ptr %29, %30
  br i1 %31, label %32, label %37

32:                                               ; preds = %26
  %33 = load ptr, ptr %3, align 8, !tbaa !66
  %34 = load ptr, ptr @zend_ce_stringable, align 8, !tbaa !66
  %35 = call zeroext i1 @zend_class_implements_interface(ptr noundef %33, ptr noundef %34)
  br i1 %35, label %36, label %37

36:                                               ; preds = %32
  br label %8

37:                                               ; preds = %32, %26
  %38 = load ptr, ptr %3, align 8, !tbaa !66
  %39 = load ptr, ptr %5, align 8, !tbaa !66
  call void @zend_do_implement_interface(ptr noundef %38, ptr noundef %39)
  br label %8

40:                                               ; preds = %8
  %41 = getelementptr inbounds [1 x %struct.__va_list_tag], ptr %6, i64 0, i64 0
  call void @llvm.va_end.p0(ptr %41)
  call void @llvm.lifetime.end.p0(i64 24, ptr %6) #21
  call void @llvm.lifetime.end.p0(i64 8, ptr %5) #21
  ret void
}