; Function Attrs: nounwind uwtable
define dso_local void @zend_class_implements(ptr noundef %0, i32 noundef %1, ...) local_unnamed_addr #2 {
  %3 = alloca [1 x %struct.__va_list_tag], align 16
  call void @llvm.lifetime.start.p0(i64 24, ptr nonnull %3) #34
  call void @llvm.va_start.p0(ptr nonnull %3)
  %.not6 = icmp eq i32 %1, 0
  br i1 %.not6, label %._crit_edge, label %.lr.ph

.lr.ph:                                           ; preds = %2
  %4 = getelementptr inbounds nuw i8, ptr %3, i64 8
  %5 = getelementptr inbounds nuw i8, ptr %3, i64 16
  br label %6

6:                                                ; preds = %.lr.ph, %.backedge
  %.in = phi i32 [ %1, %.lr.ph ], [ %7, %.backedge ]
  %7 = add nsw i32 %.in, -1
  %8 = load i32, ptr %3, align 16
  %9 = icmp ult i32 %8, 41
  br i1 %9, label %10, label %15

10:                                               ; preds = %6
  %11 = load ptr, ptr %5, align 16
  %12 = zext nneg i32 %8 to i64
  %13 = getelementptr i8, ptr %11, i64 %12
  %14 = add nuw nsw i32 %8, 8
  store i32 %14, ptr %3, align 16
  br label %18

15:                                               ; preds = %6
  %16 = load ptr, ptr %4, align 8
  %17 = getelementptr i8, ptr %16, i64 8
  store ptr %17, ptr %4, align 8
  br label %18

18:                                               ; preds = %15, %10
  %19 = phi ptr [ %13, %10 ], [ %16, %15 ]
  %20 = load ptr, ptr %19, align 8, !tbaa !65
  %21 = load ptr, ptr @zend_ce_stringable, align 8, !tbaa !65
  %22 = icmp eq ptr %20, %21
  br i1 %22, label %23, label %25

23:                                               ; preds = %18
  %24 = call zeroext i1 @zend_class_implements_interface(ptr noundef %0, ptr noundef %21) #34
  br i1 %24, label %.backedge, label %25

25:                                               ; preds = %23, %18
  call void @zend_do_implement_interface(ptr noundef %0, ptr noundef %20) #34
  br label %.backedge

.backedge:                                        ; preds = %25, %23
  %.not = icmp eq i32 %7, 0
  br i1 %.not, label %._crit_edge, label %6

._crit_edge:                                      ; preds = %.backedge, %2
  call void @llvm.va_end.p0(ptr nonnull %3)
  call void @llvm.lifetime.end.p0(i64 24, ptr nonnull %3) #34
  ret void
}